target datalayout = "e-m:e-p270:32:32-p271:32:32-p272:64:64-i64:64-i128:128-f80:128-n8:16:32:64-S128"
target triple = "x86_64-pc-linux-gnu"

%struct.Agobj_s = type { %struct.Agtag_s, ptr }
%struct.Agtag_s = type { i32, i64 }
%struct.Agnodeinfo_t = type { %struct.Agrec_s, ptr, ptr, %struct.pointf_s, double, double, %struct.boxf, double, double, double, double, double, ptr, ptr, ptr, i8, i8, i8, i8, i32, i32, i32, ptr, double, i8, i8, ptr, ptr, i8, i64, i8, i8, i8, ptr, ptr, %struct.elist, %struct.elist, %struct.elist, %struct.elist, %struct.elist, ptr, i32, ptr, i32, i32, double, %struct.elist, %struct.elist, %struct.elist, %struct.elist, ptr, i32, i32, i32, [1 x double] }
%struct.Agrec_s = type { ptr, ptr }
%struct.pointf_s = type { double, double }
%struct.boxf = type { %struct.pointf_s, %struct.pointf_s }
%struct.elist = type { ptr, i64 }
%struct.Agedge_s = type { %struct.Agobj_s, %struct.dtlink_s_, %struct.dtlink_s_, ptr }
%struct.dtlink_s_ = type { ptr, %union.anon }
%union.anon = type { ptr }

; Function Attrs: nounwind uwtable
define internal ptr @ffe(ptr noundef %0, ptr %1, i64 %2, ptr noundef %3, ptr %4, i64 %5) #0 {
  %7 = alloca %struct.elist, align 8
  %8 = alloca %struct.elist, align 8
  %9 = alloca ptr, align 8
  %10 = alloca ptr, align 8
  %11 = alloca i32, align 4
  %12 = alloca ptr, align 8
  %13 = getelementptr inbounds nuw { ptr, i64 }, ptr %7, i32 0, i32 0
  store ptr %1, ptr %13, align 8
  %14 = getelementptr inbounds nuw { ptr, i64 }, ptr %7, i32 0, i32 1
  store i64 %2, ptr %14, align 8
  %15 = getelementptr inbounds nuw { ptr, i64 }, ptr %8, i32 0, i32 0
  store ptr %4, ptr %15, align 8
  %16 = getelementptr inbounds nuw { ptr, i64 }, ptr %8, i32 0, i32 1
  store i64 %5, ptr %16, align 8
  store ptr %0, ptr %9, align 8, !tbaa !3
  store ptr %3, ptr %10, align 8, !tbaa !3
  call void @llvm.lifetime.start.p0(i64 4, ptr %11) #11
  call void @llvm.lifetime.start.p0(i64 8, ptr %12) #11
  %17 = getelementptr inbounds nuw %struct.elist, ptr %7, i32 0, i32 1
  %18 = load i64, ptr %17, align 8, !tbaa !14
  %19 = icmp ugt i64 %18, 0
  br i1 %19, label %20, label %95

20:                                               ; preds = %6
  %21 = getelementptr inbounds nuw %struct.elist, ptr %8, i32 0, i32 1
  %22 = load i64, ptr %21, align 8, !tbaa !14
  %23 = icmp ugt i64 %22, 0
  br i1 %23, label %24, label %95

24:                                               ; preds = %20
  %25 = getelementptr inbounds nuw %struct.elist, ptr %7, i32 0, i32 1
  %26 = load i64, ptr %25, align 8, !tbaa !14
  %27 = getelementptr inbounds nuw %struct.elist, ptr %8, i32 0, i32 1
  %28 = load i64, ptr %27, align 8, !tbaa !14
  %29 = icmp ult i64 %26, %28
  br i1 %29, label %30, label %62

30:                                               ; preds = %24
  store i32 0, ptr %11, align 4, !tbaa !17
  br label %31

31:                                               ; preds = %58, %30
  %32 = getelementptr inbounds nuw %struct.elist, ptr %7, i32 0, i32 0
  %33 = load ptr, ptr %32, align 8, !tbaa !18
  %34 = load i32, ptr %11, align 4, !tbaa !17
  %35 = sext i32 %34 to i64
  %36 = getelementptr inbounds ptr, ptr %33, i64 %35
  %37 = load ptr, ptr %36, align 8, !tbaa !19
  store ptr %37, ptr %12, align 8, !tbaa !19
  %38 = icmp ne ptr %37, null
  br i1 %38, label %39, label %61

39:                                               ; preds = %31
  %40 = load ptr, ptr %12, align 8, !tbaa !19
  %41 = getelementptr inbounds nuw %struct.Agobj_s, ptr %40, i32 0, i32 0
  %42 = load i32, ptr %41, align 8
  %43 = and i32 %42, 3
  %44 = icmp eq i32 %43, 2
  br i1 %44, label %45, label %47

45:                                               ; preds = %39
  %46 = load ptr, ptr %12, align 8, !tbaa !19
  br label %50

47:                                               ; preds = %39
  %48 = load ptr, ptr %12, align 8, !tbaa !19
  %49 = getelementptr inbounds %struct.Agedge_s, ptr %48, i64 -1
  br label %50

50:                                               ; preds = %47, %45
  %51 = phi ptr [ %46, %45 ], [ %49, %47 ]
  %52 = getelementptr inbounds nuw %struct.Agedge_s, ptr %51, i32 0, i32 3
  %53 = load ptr, ptr %52, align 8, !tbaa !21
  %54 = load ptr, ptr %10, align 8, !tbaa !3
  %55 = icmp eq ptr %53, %54
  br i1 %55, label %56, label %57

56:                                               ; preds = %50
  br label %61

57:                                               ; preds = %50
  br label %58

58:                                               ; preds = %57
  %59 = load i32, ptr %11, align 4, !tbaa !17
  %60 = add nsw i32 %59, 1
  store i32 %60, ptr %11, align 4, !tbaa !17
  br label %31, !llvm.loop !25

61:                                               ; preds = %56, %31
  br label %94

62:                                               ; preds = %24
  store i32 0, ptr %11, align 4, !tbaa !17
  br label %63

63:                                               ; preds = %90, %62
  %64 = getelementptr inbounds nuw %struct.elist, ptr %8, i32 0, i32 0
  %65 = load ptr, ptr %64, align 8, !tbaa !18
  %66 = load i32, ptr %11, align 4, !tbaa !17
  %67 = sext i32 %66 to i64
  %68 = getelementptr inbounds ptr, ptr %65, i64 %67
  %69 = load ptr, ptr %68, align 8, !tbaa !19
  store ptr %69, ptr %12, align 8, !tbaa !19
  %70 = icmp ne ptr %69, null
  br i1 %70, label %71, label %93

71:                                               ; preds = %63
  %72 = load ptr, ptr %12, align 8, !tbaa !19
  %73 = getelementptr inbounds nuw %struct.Agobj_s, ptr %72, i32 0, i32 0
  %74 = load i32, ptr %73, align 8
  %75 = and i32 %74, 3
  %76 = icmp eq i32 %75, 3
  br i1 %76, label %77, label %79

77:                                               ; preds = %71
  %78 = load ptr, ptr %12, align 8, !tbaa !19
  br label %82

79:                                               ; preds = %71
  %80 = load ptr, ptr %12, align 8, !tbaa !19
  %81 = getelementptr inbounds %struct.Agedge_s, ptr %80, i64 1
  br label %82

82:                                               ; preds = %79, %77
  %83 = phi ptr [ %78, %77 ], [ %81, %79 ]
  %84 = getelementptr inbounds nuw %struct.Agedge_s, ptr %83, i32 0, i32 3
  %85 = load ptr, ptr %84, align 8, !tbaa !21
  %86 = load ptr, ptr %9, align 8, !tbaa !3
  %87 = icmp eq ptr %85, %86
  br i1 %87, label %88, label %89

88:                                               ; preds = %82
  br label %93

89:                                               ; preds = %82
  br label %90

90:                                               ; preds = %89
  %91 = load i32, ptr %11, align 4, !tbaa !17
  %92 = add nsw i32 %91, 1
  store i32 %92, ptr %11, align 4, !tbaa !17
  br label %63, !llvm.loop !27

93:                                               ; preds = %88, %63
  br label %94

94:                                               ; preds = %93, %61
  br label %96

95:                                               ; preds = %20, %6
  store ptr null, ptr %12, align 8, !tbaa !19
  br label %96

96:                                               ; preds = %95, %94
  %97 = load ptr, ptr %12, align 8, !tbaa !19
  call void @llvm.lifetime.end.p0(i64 8, ptr %12) #11
  call void @llvm.lifetime.end.p0(i64 4, ptr %11) #11
  ret ptr %97
}

; Function Attrs: nounwind uwtable
define ptr @find_fast_edge(ptr noundef %0, ptr noundef %1) #0 {
  %3 = alloca ptr, align 8
  %4 = alloca ptr, align 8
  store ptr %0, ptr %3, align 8, !tbaa !3
  store ptr %1, ptr %4, align 8, !tbaa !3
  %5 = load ptr, ptr %3, align 8, !tbaa !3
  %6 = load ptr, ptr %3, align 8, !tbaa !3
  %7 = getelementptr inbounds nuw %struct.Agobj_s, ptr %6, i32 0, i32 1
  %8 = load ptr, ptr %7, align 8, !tbaa !8
  %9 = getelementptr inbounds nuw %struct.Agnodeinfo_t, ptr %8, i32 0, i32 36
  %10 = load ptr, ptr %4, align 8, !tbaa !3
  %11 = load ptr, ptr %4, align 8, !tbaa !3
  %12 = getelementptr inbounds nuw %struct.Agobj_s, ptr %11, i32 0, i32 1
  %13 = load ptr, ptr %12, align 8, !tbaa !8
  %14 = getelementptr inbounds nuw %struct.Agnodeinfo_t, ptr %13, i32 0, i32 35
  %15 = getelementptr inbounds nuw { ptr, i64 }, ptr %9, i32 0, i32 0
  %16 = load ptr, ptr %15, align 8
  %17 = getelementptr inbounds nuw { ptr, i64 }, ptr %9, i32 0, i32 1
  %18 = load i64, ptr %17, align 8
  %19 = getelementptr inbounds nuw { ptr, i64 }, ptr %14, i32 0, i32 0
  %20 = load ptr, ptr %19, align 8
  %21 = getelementptr inbounds nuw { ptr, i64 }, ptr %14, i32 0, i32 1
  %22 = load i64, ptr %21, align 8
  %23 = call ptr @ffe(ptr noundef %5, ptr %16, i64 %18, ptr noundef %10, ptr %20, i64 %22)
  ret ptr %23
}